target datalayout = "e-m:e-p270:32:32-p271:32:32-p272:64:64-i64:64-i128:128-f80:128-n8:16:32:64-S128"
target triple = "x86_64-pc-linux-gnu"

@.str.3 = private unnamed_addr constant [8 x i8] c"userval\00", align 1
@.str.4 = private unnamed_addr constant [9 x i8] c"openEdge\00", align 1
@.str.5 = private unnamed_addr constant [20 x i8] c"tail and head nodes\00", align 1
@.str.6 = private unnamed_addr constant [19 x i8] c"subgraph and nodes\00", align 1

; Function Attrs: nounwind uwtable
define ptr @openEdge(ptr noundef %0, ptr noundef %1, ptr noundef %2, ptr noundef %3) #0 {
  %5 = alloca ptr, align 8
  %6 = alloca ptr, align 8
  %7 = alloca ptr, align 8
  %8 = alloca ptr, align 8
  %9 = alloca ptr, align 8
  %10 = alloca ptr, align 8
  %11 = alloca ptr, align 8
  %12 = alloca i32, align 4
  store ptr %0, ptr %6, align 8, !tbaa !92
  store ptr %1, ptr %7, align 8, !tbaa !93
  store ptr %2, ptr %8, align 8, !tbaa !93
  store ptr %3, ptr %9, align 8, !tbaa !7
  call void @llvm.lifetime.start.p0(i64 8, ptr %10) #16
  call void @llvm.lifetime.start.p0(i64 8, ptr %11) #16
  %13 = load ptr, ptr %7, align 8, !tbaa !93
  %14 = load ptr, ptr %8, align 8, !tbaa !93
  %15 = call ptr @sameG(ptr noundef %13, ptr noundef %14, ptr noundef @.str.4, ptr noundef @.str.5)
  store ptr %15, ptr %11, align 8, !tbaa !92
  %16 = load ptr, ptr %11, align 8, !tbaa !92
  %17 = icmp ne ptr %16, null
  br i1 %17, label %19, label %18

18:                                               ; preds = %4
  store ptr null, ptr %5, align 8
  store i32 1, ptr %12, align 4
  br label %48

19:                                               ; preds = %4
  %20 = load ptr, ptr %6, align 8, !tbaa !92
  %21 = icmp ne ptr %20, null
  br i1 %21, label %22, label %29

22:                                               ; preds = %19
  %23 = load ptr, ptr %6, align 8, !tbaa !92
  %24 = load ptr, ptr %11, align 8, !tbaa !92
  %25 = call ptr @sameG(ptr noundef %23, ptr noundef %24, ptr noundef @.str.4, ptr noundef @.str.6)
  %26 = icmp ne ptr %25, null
  br i1 %26, label %28, label %27

27:                                               ; preds = %22
  store ptr null, ptr %5, align 8
  store i32 1, ptr %12, align 4
  br label %48

28:                                               ; preds = %22
  br label %31

29:                                               ; preds = %19
  %30 = load ptr, ptr %11, align 8, !tbaa !92
  store ptr %30, ptr %6, align 8, !tbaa !92
  br label %31

31:                                               ; preds = %29, %28
  %32 = load ptr, ptr %6, align 8, !tbaa !92
  %33 = load ptr, ptr %7, align 8, !tbaa !93
  %34 = load ptr, ptr %8, align 8, !tbaa !93
  %35 = load ptr, ptr %9, align 8, !tbaa !7
  %36 = call ptr @agedge(ptr noundef %32, ptr noundef %33, ptr noundef %34, ptr noundef %35, i32 noundef 1)
  store ptr %36, ptr %10, align 8, !tbaa !94
  %37 = load ptr, ptr %10, align 8, !tbaa !94
  %38 = icmp ne ptr %37, null
  br i1 %38, label %39, label %46

39:                                               ; preds = %31
  %40 = load ptr, ptr %10, align 8, !tbaa !94
  %41 = call ptr @aggetrec(ptr noundef %40, ptr noundef @.str.3, i32 noundef 0)
  %42 = icmp ne ptr %41, null
  br i1 %42, label %46, label %43

43:                                               ; preds = %39
  %44 = load ptr, ptr %10, align 8, !tbaa !94
  %45 = call ptr @agbindrec(ptr noundef %44, ptr noundef @.str.3, i32 noundef 16, i32 noundef 0)
  br label %46

46:                                               ; preds = %43, %39, %31
  %47 = load ptr, ptr %10, align 8, !tbaa !94
  store ptr %47, ptr %5, align 8
  store i32 1, ptr %12, align 4
  br label %48

48:                                               ; preds = %46, %27, %18
  call void @llvm.lifetime.end.p0(i64 8, ptr %11) #16
  call void @llvm.lifetime.end.p0(i64 8, ptr %10) #16
  %49 = load ptr, ptr %5, align 8
  ret ptr %49
}