; Function Attrs: nounwind uwtable
define ptr @openEdge(ptr noundef %0, ptr noundef %1, ptr noundef %2, ptr noundef %3) local_unnamed_addr #0 {
  %5 = tail call ptr @sameG(ptr noundef %1, ptr noundef %2, ptr noundef nonnull @.str.4, ptr noundef nonnull @.str.5) #25
  %.not = icmp eq ptr %5, null
  br i1 %.not, label %15, label %6

6:                                                ; preds = %4
  %.not20 = icmp eq ptr %0, null
  br i1 %.not20, label %9, label %7

7:                                                ; preds = %6
  %8 = tail call ptr @sameG(ptr noundef nonnull %0, ptr noundef nonnull %5, ptr noundef nonnull @.str.4, ptr noundef nonnull @.str.6) #25
  %.not21 = icmp eq ptr %8, null
  br i1 %.not21, label %15, label %9

9:                                                ; preds = %6, %7
  %.016 = phi ptr [ %0, %7 ], [ %5, %6 ]
  %10 = tail call ptr @agedge(ptr noundef nonnull %.016, ptr noundef %1, ptr noundef %2, ptr noundef %3, i32 noundef 1) #25
  %.not22 = icmp eq ptr %10, null
  br i1 %.not22, label %15, label %11

11:                                               ; preds = %9
  %12 = tail call ptr @aggetrec(ptr noundef nonnull %10, ptr noundef nonnull @.str.3, i32 noundef 0) #25
  %.not23 = icmp eq ptr %12, null
  br i1 %.not23, label %13, label %15

13:                                               ; preds = %11
  %14 = tail call ptr @agbindrec(ptr noundef nonnull %10, ptr noundef nonnull @.str.3, i32 noundef 16, i32 noundef 0) #25
  br label %15

15:                                               ; preds = %9, %11, %13, %7, %4
  %.0 = phi ptr [ null, %4 ], [ null, %7 ], [ %10, %13 ], [ %10, %11 ], [ null, %9 ]
  ret ptr %.0
}